target datalayout = "e-m:e-p270:32:32-p271:32:32-p272:64:64-i64:64-i128:128-f80:128-n8:16:32:64-S128"
target triple = "x86_64-pc-linux-gnu"

@_ZZ20duAppendCylinderWireP11duDebugDrawffffffjE3dir = internal global [32 x float] zeroinitializer, align 16
@_ZZ20duAppendCylinderWireP11duDebugDrawffffffjE4init = internal global i8 0, align 1

; Function Attrs: mustprogress nounwind uwtable
define linkonce_odr noundef float @_Z10dtMathSinff(float noundef %0) #0 comdat {
  %2 = alloca float, align 4
  store float %0, ptr %2, align 4
  %3 = load float, ptr %2, align 4
  %4 = call float @sinf(float noundef %3) #9
  ret float %4
}

; Function Attrs: mustprogress nounwind uwtable
define linkonce_odr noundef float @_Z10dtMathCosff(float noundef %0) #0 comdat {
  %2 = alloca float, align 4
  store float %0, ptr %2, align 4
  %3 = load float, ptr %2, align 4
  %4 = call float @cosf(float noundef %3) #9
  ret float %4
}

; Function Attrs: mustprogress uwtable
define void @_Z20duAppendCylinderWireP11duDebugDrawffffffj(ptr noundef %0, float noundef %1, float noundef %2, float noundef %3, float noundef %4, float noundef %5, float noundef %6, i32 noundef %7) #2 {
  %9 = alloca ptr, align 8
  %10 = alloca float, align 4
  %11 = alloca float, align 4
  %12 = alloca float, align 4
  %13 = alloca float, align 4
  %14 = alloca float, align 4
  %15 = alloca float, align 4
  %16 = alloca i32, align 4
  %17 = alloca i32, align 4
  %18 = alloca float, align 4
  %19 = alloca float, align 4
  %20 = alloca float, align 4
  %21 = alloca float, align 4
  %22 = alloca float, align 4
  %23 = alloca i32, align 4
  %24 = alloca i32, align 4
  %25 = alloca i32, align 4
  store ptr %0, ptr %9, align 8
  store float %1, ptr %10, align 4
  store float %2, ptr %11, align 4
  store float %3, ptr %12, align 4
  store float %4, ptr %13, align 4
  store float %5, ptr %14, align 4
  store float %6, ptr %15, align 4
  store i32 %7, ptr %16, align 4
  %26 = load ptr, ptr %9, align 8
  %27 = icmp ne ptr %26, null
  br i1 %27, label %29, label %28

28:                                               ; preds = %8
  br label %235

29:                                               ; preds = %8
  %30 = load i8, ptr @_ZZ20duAppendCylinderWireP11duDebugDrawffffffjE4init, align 1
  %31 = trunc i8 %30 to i1
  br i1 %31, label %59, label %32

32:                                               ; preds = %29
  store i8 1, ptr @_ZZ20duAppendCylinderWireP11duDebugDrawffffffjE4init, align 1
  store i32 0, ptr %17, align 4
  br label %33

33:                                               ; preds = %55, %32
  %34 = load i32, ptr %17, align 4
  %35 = icmp slt i32 %34, 16
  br i1 %35, label %36, label %58

36:                                               ; preds = %33
  %37 = load i32, ptr %17, align 4
  %38 = sitofp i32 %37 to float
  %39 = fdiv float %38, 1.600000e+01
  %40 = fmul float %39, 0x400921FB60000000
  %41 = fmul float %40, 2.000000e+00
  store float %41, ptr %18, align 4
  %42 = load float, ptr %18, align 4
  %43 = call noundef float @_Z10dtMathCosff(float noundef %42)
  %44 = load i32, ptr %17, align 4
  %45 = mul nsw i32 %44, 2
  %46 = sext i32 %45 to i64
  %47 = getelementptr inbounds [32 x float], ptr @_ZZ20duAppendCylinderWireP11duDebugDrawffffffjE3dir, i64 0, i64 %46
  store float %43, ptr %47, align 4
  %48 = load float, ptr %18, align 4
  %49 = call noundef float @_Z10dtMathSinff(float noundef %48)
  %50 = load i32, ptr %17, align 4
  %51 = mul nsw i32 %50, 2
  %52 = add nsw i32 %51, 1
  %53 = sext i32 %52 to i64
  %54 = getelementptr inbounds [32 x float], ptr @_ZZ20duAppendCylinderWireP11duDebugDrawffffffjE3dir, i64 0, i64 %53
  store float %49, ptr %54, align 4
  br label %55

55:                                               ; preds = %36
  %56 = load i32, ptr %17, align 4
  %57 = add nsw i32 %56, 1
  store i32 %57, ptr %17, align 4
  br label %33, !llvm.loop !4

58:                                               ; preds = %33
  br label %59

59:                                               ; preds = %58, %29
  %60 = load float, ptr %13, align 4
  %61 = load float, ptr %10, align 4
  %62 = fadd float %60, %61
  %63 = fdiv float %62, 2.000000e+00
  store float %63, ptr %19, align 4
  %64 = load float, ptr %15, align 4
  %65 = load float, ptr %12, align 4
  %66 = fadd float %64, %65
  %67 = fdiv float %66, 2.000000e+00
  store float %67, ptr %20, align 4
  %68 = load float, ptr %13, align 4
  %69 = load float, ptr %10, align 4
  %70 = fsub float %68, %69
  %71 = fdiv float %70, 2.000000e+00
  store float %71, ptr %21, align 4
  %72 = load float, ptr %15, align 4
  %73 = load float, ptr %12, align 4
  %74 = fsub float %72, %73
  %75 = fdiv float %74, 2.000000e+00
  store float %75, ptr %22, align 4
  store i32 0, ptr %23, align 4
  store i32 15, ptr %24, align 4
  br label %76

76:                                               ; preds = %176, %59
  %77 = load i32, ptr %23, align 4
  %78 = icmp slt i32 %77, 16
  br i1 %78, label %79, label %179

79:                                               ; preds = %76
  %80 = load ptr, ptr %9, align 8
  %81 = load float, ptr %19, align 4
  %82 = load i32, ptr %24, align 4
  %83 = mul nsw i32 %82, 2
  %84 = add nsw i32 %83, 0
  %85 = sext i32 %84 to i64
  %86 = getelementptr inbounds [32 x float], ptr @_ZZ20duAppendCylinderWireP11duDebugDrawffffffjE3dir, i64 0, i64 %85
  %87 = load float, ptr %86, align 4
  %88 = load float, ptr %21, align 4
  %89 = call float @llvm.fmuladd.f32(float %87, float %88, float %81)
  %90 = load float, ptr %11, align 4
  %91 = load float, ptr %20, align 4
  %92 = load i32, ptr %24, align 4
  %93 = mul nsw i32 %92, 2
  %94 = add nsw i32 %93, 1
  %95 = sext i32 %94 to i64
  %96 = getelementptr inbounds [32 x float], ptr @_ZZ20duAppendCylinderWireP11duDebugDrawffffffjE3dir, i64 0, i64 %95
  %97 = load float, ptr %96, align 4
  %98 = load float, ptr %22, align 4
  %99 = call float @llvm.fmuladd.f32(float %97, float %98, float %91)
  %100 = load i32, ptr %16, align 4
  %101 = load ptr, ptr %80, align 8
  %102 = getelementptr inbounds ptr, ptr %101, i64 6
  %103 = load ptr, ptr %102, align 8
  call void %103(ptr noundef nonnull align 8 dereferenceable(8) %80, float noundef %89, float noundef %90, float noundef %99, i32 noundef %100)
  %104 = load ptr, ptr %9, align 8
  %105 = load float, ptr %19, align 4
  %106 = load i32, ptr %23, align 4
  %107 = mul nsw i32 %106, 2
  %108 = add nsw i32 %107, 0
  %109 = sext i32 %108 to i64
  %110 = getelementptr inbounds [32 x float], ptr @_ZZ20duAppendCylinderWireP11duDebugDrawffffffjE3dir, i64 0, i64 %109
  %111 = load float, ptr %110, align 4
  %112 = load float, ptr %21, align 4
  %113 = call float @llvm.fmuladd.f32(float %111, float %112, float %105)
  %114 = load float, ptr %11, align 4
  %115 = load float, ptr %20, align 4
  %116 = load i32, ptr %23, align 4
  %117 = mul nsw i32 %116, 2
  %118 = add nsw i32 %117, 1
  %119 = sext i32 %118 to i64
  %120 = getelementptr inbounds [32 x float], ptr @_ZZ20duAppendCylinderWireP11duDebugDrawffffffjE3dir, i64 0, i64 %119
  %121 = load float, ptr %120, align 4
  %122 = load float, ptr %22, align 4
  %123 = call float @llvm.fmuladd.f32(float %121, float %122, float %115)
  %124 = load i32, ptr %16, align 4
  %125 = load ptr, ptr %104, align 8
  %126 = getelementptr inbounds ptr, ptr %125, i64 6
  %127 = load ptr, ptr %126, align 8
  call void %127(ptr noundef nonnull align 8 dereferenceable(8) %104, float noundef %113, float noundef %114, float noundef %123, i32 noundef %124)
  %128 = load ptr, ptr %9, align 8
  %129 = load float, ptr %19, align 4
  %130 = load i32, ptr %24, align 4
  %131 = mul nsw i32 %130, 2
  %132 = add nsw i32 %131, 0
  %133 = sext i32 %132 to i64
  %134 = getelementptr inbounds [32 x float], ptr @_ZZ20duAppendCylinderWireP11duDebugDrawffffffjE3dir, i64 0, i64 %133
  %135 = load float, ptr %134, align 4
  %136 = load float, ptr %21, align 4
  %137 = call float @llvm.fmuladd.f32(float %135, float %136, float %129)
  %138 = load float, ptr %14, align 4
  %139 = load float, ptr %20, align 4
  %140 = load i32, ptr %24, align 4
  %141 = mul nsw i32 %140, 2
  %142 = add nsw i32 %141, 1
  %143 = sext i32 %142 to i64
  %144 = getelementptr inbounds [32 x float], ptr @_ZZ20duAppendCylinderWireP11duDebugDrawffffffjE3dir, i64 0, i64 %143
  %145 = load float, ptr %144, align 4
  %146 = load float, ptr %22, align 4
  %147 = call float @llvm.fmuladd.f32(float %145, float %146, float %139)
  %148 = load i32, ptr %16, align 4
  %149 = load ptr, ptr %128, align 8
  %150 = getelementptr inbounds ptr, ptr %149, i64 6
  %151 = load ptr, ptr %150, align 8
  call void %151(ptr noundef nonnull align 8 dereferenceable(8) %128, float noundef %137, float noundef %138, float noundef %147, i32 noundef %148)
  %152 = load ptr, ptr %9, align 8
  %153 = load float, ptr %19, align 4
  %154 = load i32, ptr %23, align 4
  %155 = mul nsw i32 %154, 2
  %156 = add nsw i32 %155, 0
  %157 = sext i32 %156 to i64
  %158 = getelementptr inbounds [32 x float], ptr @_ZZ20duAppendCylinderWireP11duDebugDrawffffffjE3dir, i64 0, i64 %157
  %159 = load float, ptr %158, align 4
  %160 = load float, ptr %21, align 4
  %161 = call float @llvm.fmuladd.f32(float %159, float %160, float %153)
  %162 = load float, ptr %14, align 4
  %163 = load float, ptr %20, align 4
  %164 = load i32, ptr %23, align 4
  %165 = mul nsw i32 %164, 2
  %166 = add nsw i32 %165, 1
  %167 = sext i32 %166 to i64
  %168 = getelementptr inbounds [32 x float], ptr @_ZZ20duAppendCylinderWireP11duDebugDrawffffffjE3dir, i64 0, i64 %167
  %169 = load float, ptr %168, align 4
  %170 = load float, ptr %22, align 4
  %171 = call float @llvm.fmuladd.f32(float %169, float %170, float %163)
  %172 = load i32, ptr %16, align 4
  %173 = load ptr, ptr %152, align 8
  %174 = getelementptr inbounds ptr, ptr %173, i64 6
  %175 = load ptr, ptr %174, align 8
  call void %175(ptr noundef nonnull align 8 dereferenceable(8) %152, float noundef %161, float noundef %162, float noundef %171, i32 noundef %172)
  br label %176

176:                                              ; preds = %79
  %177 = load i32, ptr %23, align 4
  %178 = add nsw i32 %177, 1
  store i32 %178, ptr %23, align 4
  store i32 %177, ptr %24, align 4
  br label %76, !llvm.loop !6

179:                                              ; preds = %76
  store i32 0, ptr %25, align 4
  br label %180

180:                                              ; preds = %232, %179
  %181 = load i32, ptr %25, align 4
  %182 = icmp slt i32 %181, 16
  br i1 %182, label %183, label %235

183:                                              ; preds = %180
  %184 = load ptr, ptr %9, align 8
  %185 = load float, ptr %19, align 4
  %186 = load i32, ptr %25, align 4
  %187 = mul nsw i32 %186, 2
  %188 = add nsw i32 %187, 0
  %189 = sext i32 %188 to i64
  %190 = getelementptr inbounds [32 x float], ptr @_ZZ20duAppendCylinderWireP11duDebugDrawffffffjE3dir, i64 0, i64 %189
  %191 = load float, ptr %190, align 4
  %192 = load float, ptr %21, align 4
  %193 = call float @llvm.fmuladd.f32(float %191, float %192, float %185)
  %194 = load float, ptr %11, align 4
  %195 = load float, ptr %20, align 4
  %196 = load i32, ptr %25, align 4
  %197 = mul nsw i32 %196, 2
  %198 = add nsw i32 %197, 1
  %199 = sext i32 %198 to i64
  %200 = getelementptr inbounds [32 x float], ptr @_ZZ20duAppendCylinderWireP11duDebugDrawffffffjE3dir, i64 0, i64 %199
  %201 = load float, ptr %200, align 4
  %202 = load float, ptr %22, align 4
  %203 = call float @llvm.fmuladd.f32(float %201, float %202, float %195)
  %204 = load i32, ptr %16, align 4
  %205 = load ptr, ptr %184, align 8
  %206 = getelementptr inbounds ptr, ptr %205, i64 6
  %207 = load ptr, ptr %206, align 8
  call void %207(ptr noundef nonnull align 8 dereferenceable(8) %184, float noundef %193, float noundef %194, float noundef %203, i32 noundef %204)
  %208 = load ptr, ptr %9, align 8
  %209 = load float, ptr %19, align 4
  %210 = load i32, ptr %25, align 4
  %211 = mul nsw i32 %210, 2
  %212 = add nsw i32 %211, 0
  %213 = sext i32 %212 to i64
  %214 = getelementptr inbounds [32 x float], ptr @_ZZ20duAppendCylinderWireP11duDebugDrawffffffjE3dir, i64 0, i64 %213
  %215 = load float, ptr %214, align 4
  %216 = load float, ptr %21, align 4
  %217 = call float @llvm.fmuladd.f32(float %215, float %216, float %209)
  %218 = load float, ptr %14, align 4
  %219 = load float, ptr %20, align 4
  %220 = load i32, ptr %25, align 4
  %221 = mul nsw i32 %220, 2
  %222 = add nsw i32 %221, 1
  %223 = sext i32 %222 to i64
  %224 = getelementptr inbounds [32 x float], ptr @_ZZ20duAppendCylinderWireP11duDebugDrawffffffjE3dir, i64 0, i64 %223
  %225 = load float, ptr %224, align 4
  %226 = load float, ptr %22, align 4
  %227 = call float @llvm.fmuladd.f32(float %225, float %226, float %219)
  %228 = load i32, ptr %16, align 4
  %229 = load ptr, ptr %208, align 8
  %230 = getelementptr inbounds ptr, ptr %229, i64 6
  %231 = load ptr, ptr %230, align 8
  call void %231(ptr noundef nonnull align 8 dereferenceable(8) %208, float noundef %217, float noundef %218, float noundef %227, i32 noundef %228)
  br label %232

232:                                              ; preds = %183
  %233 = load i32, ptr %25, align 4
  %234 = add nsw i32 %233, 4
  store i32 %234, ptr %25, align 4
  br label %180, !llvm.loop !7

235:                                              ; preds = %180, %28
  ret void
}