; Function Attrs: mustprogress uwtable
define void @_Z20duAppendCylinderWireP11duDebugDrawffffffj(ptr noundef %0, float noundef %1, float noundef %2, float noundef %3, float noundef %4, float noundef %5, float noundef %6, i32 noundef %7) local_unnamed_addr #4 {
  %.not = icmp eq ptr %0, null
  br i1 %.not, label %.loopexit, label %9

9:                                                ; preds = %8
  %.b77 = load i1, ptr @_ZZ20duAppendCylinderWireP11duDebugDrawffffffjE4init, align 1
  br i1 %.b77, label %.loopexit78, label %10

10:                                               ; preds = %9
  store i1 true, ptr @_ZZ20duAppendCylinderWireP11duDebugDrawffffffjE4init, align 1
  br label %11

11:                                               ; preds = %10, %11
  %indvars.iv = phi i64 [ 0, %10 ], [ %indvars.iv.next, %11 ]
  %12 = trunc i64 %indvars.iv to i32
  %13 = sitofp i32 %12 to float
  %14 = fmul float %13, 6.250000e-02
  %15 = fmul float %14, 0x400921FB60000000
  %16 = fmul float %15, 2.000000e+00
  %17 = tail call noundef float @cosf(float noundef %16) #15
  %18 = shl nuw nsw i64 %indvars.iv, 1
  %19 = getelementptr inbounds [32 x float], ptr @_ZZ20duAppendCylinderWireP11duDebugDrawffffffjE3dir, i64 0, i64 %18
  store float %17, ptr %19, align 8
  %20 = tail call noundef float @sinf(float noundef %16) #15
  %21 = or disjoint i64 %18, 1
  %22 = getelementptr inbounds [32 x float], ptr @_ZZ20duAppendCylinderWireP11duDebugDrawffffffjE3dir, i64 0, i64 %21
  store float %20, ptr %22, align 4
  %indvars.iv.next = add nuw nsw i64 %indvars.iv, 1
  %exitcond.not = icmp eq i64 %indvars.iv.next, 16
  br i1 %exitcond.not, label %.loopexit78, label %11, !llvm.loop !4

.loopexit78:                                      ; preds = %11, %9
  %23 = fadd float %1, %4
  %24 = fmul float %23, 5.000000e-01
  %25 = fadd float %3, %6
  %26 = fmul float %25, 5.000000e-01
  %27 = fsub float %4, %1
  %28 = fmul float %27, 5.000000e-01
  %29 = fsub float %6, %3
  %30 = fmul float %29, 5.000000e-01
  br label %31

31:                                               ; preds = %.loopexit78, %31
  %indvars.iv84 = phi i64 [ 0, %.loopexit78 ], [ %indvars.iv.next85, %31 ]
  %.07381 = phi i32 [ 15, %.loopexit78 ], [ %70, %31 ]
  %32 = shl nuw nsw i32 %.07381, 1
  %33 = zext nneg i32 %32 to i64
  %34 = getelementptr inbounds [32 x float], ptr @_ZZ20duAppendCylinderWireP11duDebugDrawffffffjE3dir, i64 0, i64 %33
  %35 = load float, ptr %34, align 8
  %36 = tail call float @llvm.fmuladd.f32(float %35, float %28, float %24)
  %37 = or disjoint i32 %32, 1
  %38 = zext nneg i32 %37 to i64
  %39 = getelementptr inbounds [32 x float], ptr @_ZZ20duAppendCylinderWireP11duDebugDrawffffffjE3dir, i64 0, i64 %38
  %40 = load float, ptr %39, align 4
  %41 = tail call float @llvm.fmuladd.f32(float %40, float %30, float %26)
  %42 = load ptr, ptr %0, align 8
  %43 = getelementptr inbounds i8, ptr %42, i64 48
  %44 = load ptr, ptr %43, align 8
  tail call void %44(ptr noundef nonnull align 8 dereferenceable(8) %0, float noundef %36, float noundef %2, float noundef %41, i32 noundef %7)
  %45 = shl nuw nsw i64 %indvars.iv84, 1
  %46 = getelementptr inbounds [32 x float], ptr @_ZZ20duAppendCylinderWireP11duDebugDrawffffffjE3dir, i64 0, i64 %45
  %47 = load float, ptr %46, align 8
  %48 = tail call float @llvm.fmuladd.f32(float %47, float %28, float %24)
  %49 = or disjoint i64 %45, 1
  %50 = getelementptr inbounds [32 x float], ptr @_ZZ20duAppendCylinderWireP11duDebugDrawffffffjE3dir, i64 0, i64 %49
  %51 = load float, ptr %50, align 4
  %52 = tail call float @llvm.fmuladd.f32(float %51, float %30, float %26)
  %53 = load ptr, ptr %0, align 8
  %54 = getelementptr inbounds i8, ptr %53, i64 48
  %55 = load ptr, ptr %54, align 8
  tail call void %55(ptr noundef nonnull align 8 dereferenceable(8) %0, float noundef %48, float noundef %2, float noundef %52, i32 noundef %7)
  %56 = load float, ptr %34, align 8
  %57 = tail call float @llvm.fmuladd.f32(float %56, float %28, float %24)
  %58 = load float, ptr %39, align 4
  %59 = tail call float @llvm.fmuladd.f32(float %58, float %30, float %26)
  %60 = load ptr, ptr %0, align 8
  %61 = getelementptr inbounds i8, ptr %60, i64 48
  %62 = load ptr, ptr %61, align 8
  tail call void %62(ptr noundef nonnull align 8 dereferenceable(8) %0, float noundef %57, float noundef %5, float noundef %59, i32 noundef %7)
  %63 = load float, ptr %46, align 8
  %64 = tail call float @llvm.fmuladd.f32(float %63, float %28, float %24)
  %65 = load float, ptr %50, align 4
  %66 = tail call float @llvm.fmuladd.f32(float %65, float %30, float %26)
  %67 = load ptr, ptr %0, align 8
  %68 = getelementptr inbounds i8, ptr %67, i64 48
  %69 = load ptr, ptr %68, align 8
  tail call void %69(ptr noundef nonnull align 8 dereferenceable(8) %0, float noundef %64, float noundef %5, float noundef %66, i32 noundef %7)
  %indvars.iv.next85 = add nuw nsw i64 %indvars.iv84, 1
  %70 = trunc i64 %indvars.iv84 to i32
  %exitcond87.not = icmp eq i64 %indvars.iv.next85, 16
  br i1 %exitcond87.not, label %.preheader, label %31, !llvm.loop !6

.preheader:                                       ; preds = %31, %.preheader
  %indvars.iv88 = phi i64 [ %indvars.iv.next89, %.preheader ], [ 0, %31 ]
  %71 = shl nuw nsw i64 %indvars.iv88, 1
  %72 = getelementptr inbounds [32 x float], ptr @_ZZ20duAppendCylinderWireP11duDebugDrawffffffjE3dir, i64 0, i64 %71
  %73 = load float, ptr %72, align 16
  %74 = tail call float @llvm.fmuladd.f32(float %73, float %28, float %24)
  %75 = or disjoint i64 %71, 1
  %76 = getelementptr inbounds [32 x float], ptr @_ZZ20duAppendCylinderWireP11duDebugDrawffffffjE3dir, i64 0, i64 %75
  %77 = load float, ptr %76, align 4
  %78 = tail call float @llvm.fmuladd.f32(float %77, float %30, float %26)
  %79 = load ptr, ptr %0, align 8
  %80 = getelementptr inbounds i8, ptr %79, i64 48
  %81 = load ptr, ptr %80, align 8
  tail call void %81(ptr noundef nonnull align 8 dereferenceable(8) %0, float noundef %74, float noundef %2, float noundef %78, i32 noundef %7)
  %82 = load float, ptr %72, align 16
  %83 = tail call float @llvm.fmuladd.f32(float %82, float %28, float %24)
  %84 = load float, ptr %76, align 4
  %85 = tail call float @llvm.fmuladd.f32(float %84, float %30, float %26)
  %86 = load ptr, ptr %0, align 8
  %87 = getelementptr inbounds i8, ptr %86, i64 48
  %88 = load ptr, ptr %87, align 8
  tail call void %88(ptr noundef nonnull align 8 dereferenceable(8) %0, float noundef %83, float noundef %5, float noundef %85, i32 noundef %7)
  %indvars.iv.next89 = add nuw nsw i64 %indvars.iv88, 4
  %89 = icmp ult i64 %indvars.iv88, 12
  br i1 %89, label %.preheader, label %.loopexit, !llvm.loop !7

.loopexit:                                        ; preds = %.preheader, %8
  ret void
}